; Function Attrs: mustprogress nofree nounwind memory(read, argmem: readwrite) uwtable
define i32 @ufmt_getLong_75(ptr nocapture noundef readonly %fmt, ptr nocapture noundef %status) local_unnamed_addr #10 {
entry:
  %0 = load i32, ptr %status, align 4
  %cmp.i.i = icmp slt i32 %0, 1
  br i1 %cmp.i.i, label %if.end.us.i, label %_ZNK6icu_7511Formattable7getLongER10UErrorCode.exit

if.end.us.i:                                      ; preds = %entry, %if.end26.us.i
  %this.tr17.us.i = phi ptr [ %number.i.us.i, %if.end26.us.i ], [ %fmt, %entry ]
  %fType.us.i = getelementptr inbounds i8, ptr %this.tr17.us.i, i64 40
  %1 = load i32, ptr %fType.us.i, align 8
  switch i32 %1, label %sw.default.i [
    i32 2, label %sw.bb.i
    i32 5, label %sw.bb2.i
    i32 1, label %sw.bb11.i
    i32 6, label %sw.bb22.us.i
  ]

sw.bb22.us.i:                                     ; preds = %if.end.us.i
  %fValue23.us.i = getelementptr inbounds i8, ptr %this.tr17.us.i, i64 8
  %2 = load ptr, ptr %fValue23.us.i, align 8
  %cmp24.us.i = icmp eq ptr %2, null
  br i1 %cmp24.us.i, label %if.then25.i, label %if.end26.us.i

if.end26.us.i:                                    ; preds = %sw.bb22.us.i
  %3 = tail call ptr @__dynamic_cast(ptr nonnull %2, ptr nonnull @_ZTIN6icu_757UObjectE, ptr nonnull @_ZTIN6icu_757MeasureE, i64 0) #16
  %cmp.i10.not.us.i = icmp eq ptr %3, null
  %number.i.us.i = getelementptr inbounds i8, ptr %2, i64 8
  br i1 %cmp.i10.not.us.i, label %sw.default.i, label %if.end.us.i

sw.bb.i:                                          ; preds = %if.end.us.i
  %fValue.i = getelementptr inbounds i8, ptr %this.tr17.us.i, i64 8
  %4 = load i64, ptr %fValue.i, align 8
  %conv.i = trunc i64 %4 to i32
  br label %_ZNK6icu_7511Formattable7getLongER10UErrorCode.exit

sw.bb2.i:                                         ; preds = %if.end.us.i
  %fValue3.i = getelementptr inbounds i8, ptr %this.tr17.us.i, i64 8
  %5 = load i64, ptr %fValue3.i, align 8
  %cmp.i = icmp sgt i64 %5, 2147483647
  br i1 %cmp.i, label %if.then4.i, label %if.else.i

if.then4.i:                                       ; preds = %sw.bb2.i
  store i32 3, ptr %status, align 4
  br label %_ZNK6icu_7511Formattable7getLongER10UErrorCode.exit

if.else.i:                                        ; preds = %sw.bb2.i
  %cmp6.i = icmp slt i64 %5, -2147483648
  br i1 %cmp6.i, label %if.then7.i, label %if.else8.i

if.then7.i:                                       ; preds = %if.else.i
  store i32 3, ptr %status, align 4
  br label %_ZNK6icu_7511Formattable7getLongER10UErrorCode.exit

if.else8.i:                                       ; preds = %if.else.i
  %conv10.i = trunc i64 %5 to i32
  br label %_ZNK6icu_7511Formattable7getLongER10UErrorCode.exit

sw.bb11.i:                                        ; preds = %if.end.us.i
  %fValue12.i = getelementptr inbounds i8, ptr %this.tr17.us.i, i64 8
  %6 = load double, ptr %fValue12.i, align 8
  %cmp13.i = fcmp ogt double %6, 0x41DFFFFFFFC00000
  br i1 %cmp13.i, label %if.then14.i, label %if.else15.i

if.then14.i:                                      ; preds = %sw.bb11.i
  store i32 3, ptr %status, align 4
  br label %_ZNK6icu_7511Formattable7getLongER10UErrorCode.exit

if.else15.i:                                      ; preds = %sw.bb11.i
  %cmp17.i = fcmp olt double %6, 0xC1E0000000000000
  br i1 %cmp17.i, label %if.then18.i, label %if.else19.i

if.then18.i:                                      ; preds = %if.else15.i
  store i32 3, ptr %status, align 4
  br label %_ZNK6icu_7511Formattable7getLongER10UErrorCode.exit

if.else19.i:                                      ; preds = %if.else15.i
  %conv21.i = fptosi double %6 to i32
  br label %_ZNK6icu_7511Formattable7getLongER10UErrorCode.exit

if.then25.i:                                      ; preds = %sw.bb22.us.i
  store i32 7, ptr %status, align 4
  br label %_ZNK6icu_7511Formattable7getLongER10UErrorCode.exit

sw.default.i:                                     ; preds = %if.end26.us.i, %if.end.us.i
  store i32 3, ptr %status, align 4
  br label %_ZNK6icu_7511Formattable7getLongER10UErrorCode.exit

_ZNK6icu_7511Formattable7getLongER10UErrorCode.exit: ; preds = %entry, %sw.bb.i, %if.then4.i, %if.then7.i, %if.else8.i, %if.then14.i, %if.then18.i, %if.else19.i, %if.then25.i, %sw.default.i
  %retval.0.i = phi i32 [ 0, %sw.default.i ], [ 0, %if.then25.i ], [ 2147483647, %if.then14.i ], [ -2147483648, %if.then18.i ], [ %conv21.i, %if.else19.i ], [ 2147483647, %if.then4.i ], [ -2147483648, %if.then7.i ], [ %conv10.i, %if.else8.i ], [ %conv.i, %sw.bb.i ], [ 0, %entry ]
  ret i32 %retval.0.i
}